target datalayout = "e-m:e-p270:32:32-p271:32:32-p272:64:64-i64:64-i128:128-f80:128-n8:16:32:64-S128"
target triple = "x86_64-pc-linux-gnu"

%class.ExtcapArgumentFileSelection = type { %class.ExtcapArgument, ptr }
%class.ExtcapArgument = type { %class.QObject, %class.QList, ptr, ptr, i32, %class.QString }
%class.QObject = type { ptr, %class.QScopedPointer }
%class.QScopedPointer = type { ptr }
%class.QList = type { %struct.QArrayDataPointer }
%struct.QArrayDataPointer = type { ptr, ptr, i64 }
%class.QString = type { %struct.QArrayDataPointer.0 }
%struct.QArrayDataPointer.0 = type { ptr, ptr, i64 }

; Function Attrs: mustprogress nounwind uwtable
define linkonce_odr void @_ZN17QArrayDataPointerIDsEC2Ev(ptr noundef nonnull align 8 dereferenceable(24) %0) unnamed_addr #2 comdat align 2 {
  %2 = alloca ptr, align 8
  store ptr %0, ptr %2, align 8
  %3 = load ptr, ptr %2, align 8
  %4 = getelementptr inbounds %struct.QArrayDataPointer.0, ptr %3, i32 0, i32 0
  store ptr null, ptr %4, align 8
  %5 = getelementptr inbounds %struct.QArrayDataPointer.0, ptr %3, i32 0, i32 1
  store ptr null, ptr %5, align 8
  %6 = getelementptr inbounds %struct.QArrayDataPointer.0, ptr %3, i32 0, i32 2
  store i64 0, ptr %6, align 8
  ret void
}

; Function Attrs: mustprogress nounwind uwtable
define linkonce_odr void @_ZN7QStringC2Ev(ptr noundef nonnull align 8 dereferenceable(24) %0) unnamed_addr #2 comdat align 2 {
  %2 = alloca ptr, align 8
  store ptr %0, ptr %2, align 8
  %3 = load ptr, ptr %2, align 8
  %4 = getelementptr inbounds %class.QString, ptr %3, i32 0, i32 0
  call void @_ZN17QArrayDataPointerIDsEC2Ev(ptr noundef nonnull align 8 dereferenceable(24) %4) #8
  ret void
}

; Function Attrs: mustprogress uwtable
define void @_ZN27ExtcapArgumentFileSelection5valueEv(ptr dead_on_unwind noalias writable sret(%class.QString) align 8 %0, ptr noundef nonnull align 8 dereferenceable(96) %1) unnamed_addr #0 align 2 {
  %3 = alloca ptr, align 8
  %4 = alloca ptr, align 8
  store ptr %0, ptr %3, align 8
  store ptr %1, ptr %4, align 8
  %5 = load ptr, ptr %4, align 8
  %6 = getelementptr inbounds %class.ExtcapArgumentFileSelection, ptr %5, i32 0, i32 1
  %7 = load ptr, ptr %6, align 8
  %8 = icmp eq ptr %7, null
  br i1 %8, label %9, label %10

9:                                                ; preds = %2
  call void @_ZN7QStringC2Ev(ptr noundef nonnull align 8 dereferenceable(24) %0) #8
  br label %13

10:                                               ; preds = %2
  %11 = getelementptr inbounds %class.ExtcapArgumentFileSelection, ptr %5, i32 0, i32 1
  %12 = load ptr, ptr %11, align 8
  call void @_ZNK9QLineEdit4textEv(ptr dead_on_unwind writable sret(%class.QString) align 8 %0, ptr noundef nonnull align 8 dereferenceable(40) %12)
  br label %13

13:                                               ; preds = %10, %9
  ret void
}